target datalayout = "e-m:e-p270:32:32-p271:32:32-p272:64:64-i64:64-i128:128-f80:128-n8:16:32:64-S128"
target triple = "x86_64-pc-linux-gnu"

%struct.protobuf_search_path_t = type { ptr, i8 }
%struct.protobuf_udp_message_type_t = type { ptr, ptr }
%struct._GSList = type { ptr, ptr }

@.str.101 = private unnamed_addr constant [9 x i8] c"protobuf\00", align 1
@protobuf_search_paths = internal global ptr null, align 8
@num_protobuf_search_paths = internal global i32 0, align 4
@protobuf_udp_message_types = internal global ptr null, align 8
@num_protobuf_udp_message_types = internal global i32 0, align 4
@protobuf_handle = internal global ptr null, align 8
@protobuf_dissector_called = internal global i8 0, align 1
@pbw_pool = internal global ptr null, align 8
@old_udp_port_ranges = internal global ptr null, align 8
@.str.249 = private unnamed_addr constant [9 x i8] c"udp.port\00", align 1
@.str.250 = private unnamed_addr constant [48 x i8] c"Protobuf: Loading .proto files action stopped!\0A\00", align 1
@.str.251 = private unnamed_addr constant [81 x i8] c"Protobuf: the message type \22%s\22 of UDP Message Type preferences does not exist!\0A\00", align 1
@err_msg_buf = internal global ptr null, align 8
@.str.253 = private unnamed_addr constant [23 x i8] c"Protobuf: Error(s):\0A%s\00", align 1

; Function Attrs: null_pointer_is_valid sspstrong uwtable
define internal void @flush_and_report_error() #0 {
  %1 = alloca ptr, align 8
  call void @llvm.lifetime.start.p0(i64 8, ptr %1) #18
  %2 = load ptr, ptr @err_msg_buf, align 8
  %3 = icmp ne ptr %2, null
  br i1 %3, label %4, label %10

4:                                                ; preds = %0
  %5 = load ptr, ptr @err_msg_buf, align 8
  %6 = call ptr @wmem_strbuf_finalize(ptr noundef %5)
  store ptr %6, ptr %1, align 8
  store ptr null, ptr @err_msg_buf, align 8
  %7 = load ptr, ptr %1, align 8
  call void (ptr, ...) @report_failure(ptr noundef @.str.253, ptr noundef %7)
  %8 = call ptr @wmem_epan_scope()
  %9 = load ptr, ptr %1, align 8
  call void @wmem_free(ptr noundef %8, ptr noundef %9)
  br label %10

10:                                               ; preds = %4, %0
  call void @llvm.lifetime.end.p0(i64 8, ptr %1) #18
  ret void
}

; Function Attrs: null_pointer_is_valid sspstrong uwtable
define internal void @protobuf_reinit(i32 noundef %0) #0 {
  %2 = alloca i32, align 4
  %3 = alloca i32, align 4
  %4 = alloca ptr, align 8
  %5 = alloca ptr, align 8
  %6 = alloca ptr, align 8
  %7 = alloca ptr, align 8
  %8 = alloca i8, align 1
  %9 = alloca i64, align 8
  %10 = alloca i32, align 4
  %11 = alloca i64, align 8
  %12 = alloca i64, align 8
  %13 = alloca ptr, align 8
  %14 = alloca ptr, align 8
  store i32 %0, ptr %2, align 4
  call void @llvm.lifetime.start.p0(i64 4, ptr %3) #18
  call void @llvm.lifetime.start.p0(i64 8, ptr %4) #18
  call void @llvm.lifetime.start.p0(i64 8, ptr %5) #18
  call void @llvm.lifetime.start.p0(i64 8, ptr %6) #18
  call void @llvm.lifetime.start.p0(i64 8, ptr %7) #18
  call void @llvm.lifetime.start.p0(i64 1, ptr %8) #18
  store i8 1, ptr %8, align 1
  call void @llvm.lifetime.start.p0(i64 8, ptr %9) #18
  %15 = load i32, ptr %2, align 4
  %16 = and i32 %15, 2
  %17 = icmp ne i32 %16, 0
  br i1 %17, label %18, label %66

18:                                               ; preds = %1
  %19 = load ptr, ptr @old_udp_port_ranges, align 8
  store ptr %19, ptr %5, align 8
  br label %20

20:                                               ; preds = %30, %18
  %21 = load ptr, ptr %5, align 8
  %22 = icmp ne ptr %21, null
  br i1 %22, label %23, label %34

23:                                               ; preds = %20
  %24 = load ptr, ptr %5, align 8
  %25 = getelementptr inbounds nuw %struct._GSList, ptr %24, i32 0, i32 0
  %26 = load ptr, ptr %25, align 8
  store ptr %26, ptr %6, align 8
  %27 = load ptr, ptr %6, align 8
  %28 = load ptr, ptr @protobuf_handle, align 8
  call void @dissector_delete_uint_range(ptr noundef @.str.249, ptr noundef %27, ptr noundef %28)
  %29 = load ptr, ptr %6, align 8
  call void @wmem_free(ptr noundef null, ptr noundef %29)
  br label %30

30:                                               ; preds = %23
  %31 = load ptr, ptr %5, align 8
  %32 = getelementptr inbounds nuw %struct._GSList, ptr %31, i32 0, i32 1
  %33 = load ptr, ptr %32, align 8
  store ptr %33, ptr %5, align 8
  br label %20, !llvm.loop !13

34:                                               ; preds = %20
  %35 = load ptr, ptr @old_udp_port_ranges, align 8
  %36 = icmp ne ptr %35, null
  br i1 %36, label %37, label %39

37:                                               ; preds = %34
  %38 = load ptr, ptr @old_udp_port_ranges, align 8
  call void @g_slist_free(ptr noundef %38)
  store ptr null, ptr @old_udp_port_ranges, align 8
  br label %39

39:                                               ; preds = %37, %34
  store i32 0, ptr %3, align 4
  br label %40

40:                                               ; preds = %62, %39
  %41 = load i32, ptr %3, align 4
  %42 = load i32, ptr @num_protobuf_udp_message_types, align 4
  %43 = icmp ult i32 %41, %42
  br i1 %43, label %44, label %65

44:                                               ; preds = %40
  %45 = load ptr, ptr @protobuf_udp_message_types, align 8
  %46 = load i32, ptr %3, align 4
  %47 = zext i32 %46 to i64
  %48 = getelementptr %struct.protobuf_udp_message_type_t, ptr %45, i64 %47
  %49 = getelementptr inbounds nuw %struct.protobuf_udp_message_type_t, ptr %48, i32 0, i32 0
  %50 = load ptr, ptr %49, align 8
  store ptr %50, ptr %6, align 8
  %51 = load ptr, ptr %6, align 8
  %52 = icmp ne ptr %51, null
  br i1 %52, label %53, label %61

53:                                               ; preds = %44
  %54 = load ptr, ptr %6, align 8
  %55 = call ptr @range_copy(ptr noundef null, ptr noundef %54)
  store ptr %55, ptr %6, align 8
  %56 = load ptr, ptr @old_udp_port_ranges, align 8
  %57 = load ptr, ptr %6, align 8
  %58 = call ptr @g_slist_append(ptr noundef %56, ptr noundef %57)
  store ptr %58, ptr @old_udp_port_ranges, align 8
  %59 = load ptr, ptr %6, align 8
  %60 = load ptr, ptr @protobuf_handle, align 8
  call void @dissector_add_uint_range(ptr noundef @.str.249, ptr noundef %59, ptr noundef %60)
  br label %61

61:                                               ; preds = %53, %44
  br label %62

62:                                               ; preds = %61
  %63 = load i32, ptr %3, align 4
  %64 = add i32 %63, 1
  store i32 %64, ptr %3, align 4
  br label %40, !llvm.loop !14

65:                                               ; preds = %40
  br label %66

66:                                               ; preds = %65, %1
  %67 = load i8, ptr @protobuf_dissector_called, align 1, !range !6, !noundef !7
  %68 = trunc i8 %67 to i1
  br i1 %68, label %70, label %69

69:                                               ; preds = %66
  store i32 1, ptr %10, align 4
  br label %208

70:                                               ; preds = %66
  %71 = load i32, ptr %2, align 4
  %72 = and i32 %71, 1
  %73 = icmp ne i32 %72, 0
  br i1 %73, label %74, label %175

74:                                               ; preds = %70
  %75 = load i32, ptr @num_protobuf_search_paths, align 4
  %76 = zext i32 %75 to i64
  %77 = add i64 %76, 2
  store i64 %77, ptr %9, align 8
  call void @llvm.lifetime.start.p0(i64 8, ptr %11) #18
  %78 = load i64, ptr %9, align 8
  %79 = add i64 %78, 1
  store i64 %79, ptr %11, align 8
  call void @llvm.lifetime.start.p0(i64 8, ptr %12) #18
  store i64 8, ptr %12, align 8
  call void @llvm.lifetime.start.p0(i64 8, ptr %13) #18
  %80 = load i64, ptr %12, align 8
  %81 = icmp eq i64 %80, 1
  br i1 %81, label %82, label %85

82:                                               ; preds = %74
  %83 = load i64, ptr %11, align 8
  %84 = call noalias ptr @g_malloc0(i64 noundef %83) #21
  store ptr %84, ptr %13, align 8
  br label %106

85:                                               ; preds = %74
  %86 = load i64, ptr %11, align 8
  %87 = call i1 @llvm.is.constant.i64(i64 %86)
  br i1 %87, label %88, label %101

88:                                               ; preds = %85
  %89 = load i64, ptr %12, align 8
  %90 = icmp eq i64 %89, 0
  br i1 %90, label %96, label %91

91:                                               ; preds = %88
  %92 = load i64, ptr %11, align 8
  %93 = load i64, ptr %12, align 8
  %94 = udiv i64 -1, %93
  %95 = icmp ule i64 %92, %94
  br i1 %95, label %96, label %101

96:                                               ; preds = %91, %88
  %97 = load i64, ptr %11, align 8
  %98 = load i64, ptr %12, align 8
  %99 = mul i64 %97, %98
  %100 = call noalias ptr @g_malloc0(i64 noundef %99) #21
  store ptr %100, ptr %13, align 8
  br label %105

101:                                              ; preds = %91, %85
  %102 = load i64, ptr %11, align 8
  %103 = load i64, ptr %12, align 8
  %104 = call noalias ptr @g_malloc0_n(i64 noundef %102, i64 noundef %103) #22
  store ptr %104, ptr %13, align 8
  br label %105

105:                                              ; preds = %101, %96
  br label %106

106:                                              ; preds = %105, %82
  %107 = load ptr, ptr %13, align 8
  store ptr %107, ptr %14, align 8
  call void @llvm.lifetime.end.p0(i64 8, ptr %13) #18
  call void @llvm.lifetime.end.p0(i64 8, ptr %12) #18
  call void @llvm.lifetime.end.p0(i64 8, ptr %11) #18
  %108 = load ptr, ptr %14, align 8
  store ptr %108, ptr %4, align 8
  %109 = call ptr @get_datafile_path(ptr noundef @.str.101)
  %110 = load ptr, ptr %4, align 8
  %111 = getelementptr ptr, ptr %110, i64 0
  store ptr %109, ptr %111, align 8
  %112 = call ptr @get_persconffile_path(ptr noundef @.str.101, i1 noundef zeroext true)
  %113 = load ptr, ptr %4, align 8
  %114 = getelementptr ptr, ptr %113, i64 1
  store ptr %112, ptr %114, align 8
  store i32 0, ptr %3, align 4
  br label %115

115:                                              ; preds = %131, %106
  %116 = load i32, ptr %3, align 4
  %117 = load i32, ptr @num_protobuf_search_paths, align 4
  %118 = icmp ult i32 %116, %117
  br i1 %118, label %119, label %134

119:                                              ; preds = %115
  %120 = load ptr, ptr @protobuf_search_paths, align 8
  %121 = load i32, ptr %3, align 4
  %122 = zext i32 %121 to i64
  %123 = getelementptr %struct.protobuf_search_path_t, ptr %120, i64 %122
  %124 = getelementptr inbounds nuw %struct.protobuf_search_path_t, ptr %123, i32 0, i32 0
  %125 = load ptr, ptr %124, align 8
  %126 = load ptr, ptr %4, align 8
  %127 = load i32, ptr %3, align 4
  %128 = add i32 %127, 2
  %129 = zext i32 %128 to i64
  %130 = getelementptr ptr, ptr %126, i64 %129
  store ptr %125, ptr %130, align 8
  br label %131

131:                                              ; preds = %119
  %132 = load i32, ptr %3, align 4
  %133 = add i32 %132, 1
  store i32 %133, ptr %3, align 4
  br label %115, !llvm.loop !15

134:                                              ; preds = %115
  %135 = load ptr, ptr %4, align 8
  call void @pbw_reinit_DescriptorPool(ptr noundef @pbw_pool, ptr noundef %135, ptr noundef @buffer_error)
  store i32 0, ptr %3, align 4
  br label %136

136:                                              ; preds = %164, %134
  %137 = load i32, ptr %3, align 4
  %138 = zext i32 %137 to i64
  %139 = load i64, ptr %9, align 8
  %140 = icmp ult i64 %138, %139
  br i1 %140, label %141, label %167

141:                                              ; preds = %136
  %142 = load i32, ptr %3, align 4
  %143 = icmp ult i32 %142, 2
  br i1 %143, label %153, label %144

144:                                              ; preds = %141
  %145 = load ptr, ptr @protobuf_search_paths, align 8
  %146 = load i32, ptr %3, align 4
  %147 = sub i32 %146, 2
  %148 = zext i32 %147 to i64
  %149 = getelementptr %struct.protobuf_search_path_t, ptr %145, i64 %148
  %150 = getelementptr inbounds nuw %struct.protobuf_search_path_t, ptr %149, i32 0, i32 1
  %151 = load i8, ptr %150, align 8, !range !6, !noundef !7
  %152 = trunc i8 %151 to i1
  br i1 %152, label %153, label %163

153:                                              ; preds = %144, %141
  %154 = load ptr, ptr @pbw_pool, align 8
  %155 = load ptr, ptr %4, align 8
  %156 = load i32, ptr %3, align 4
  %157 = zext i32 %156 to i64
  %158 = getelementptr ptr, ptr %155, i64 %157
  %159 = load ptr, ptr %158, align 8
  %160 = call zeroext i1 @load_all_files_in_dir(ptr noundef %154, ptr noundef %159, i32 noundef 0)
  br i1 %160, label %162, label %161

161:                                              ; preds = %153
  call void (ptr, ...) @buffer_error(ptr noundef @.str.250)
  store i8 0, ptr %8, align 1
  br label %167

162:                                              ; preds = %153
  br label %163

163:                                              ; preds = %162, %144
  br label %164

164:                                              ; preds = %163
  %165 = load i32, ptr %3, align 4
  %166 = add i32 %165, 1
  store i32 %166, ptr %3, align 4
  br label %136, !llvm.loop !16

167:                                              ; preds = %161, %136
  %168 = load ptr, ptr %4, align 8
  %169 = getelementptr ptr, ptr %168, i64 0
  %170 = load ptr, ptr %169, align 8
  call void @g_free(ptr noundef %170)
  %171 = load ptr, ptr %4, align 8
  %172 = getelementptr ptr, ptr %171, i64 1
  %173 = load ptr, ptr %172, align 8
  call void @g_free(ptr noundef %173)
  %174 = load ptr, ptr %4, align 8
  call void @g_free(ptr noundef %174)
  call void @update_header_fields(i1 noundef zeroext true)
  br label %175

175:                                              ; preds = %167, %70
  store i32 0, ptr %3, align 4
  br label %176

176:                                              ; preds = %204, %175
  %177 = load i32, ptr %3, align 4
  %178 = load i32, ptr @num_protobuf_udp_message_types, align 4
  %179 = icmp ult i32 %177, %178
  br i1 %179, label %180, label %207

180:                                              ; preds = %176
  %181 = load ptr, ptr @protobuf_udp_message_types, align 8
  %182 = load i32, ptr %3, align 4
  %183 = zext i32 %182 to i64
  %184 = getelementptr %struct.protobuf_udp_message_type_t, ptr %181, i64 %183
  %185 = getelementptr inbounds nuw %struct.protobuf_udp_message_type_t, ptr %184, i32 0, i32 1
  %186 = load ptr, ptr %185, align 8
  store ptr %186, ptr %7, align 8
  %187 = load i8, ptr %8, align 1, !range !6, !noundef !7
  %188 = trunc i8 %187 to i1
  br i1 %188, label %189, label %203

189:                                              ; preds = %180
  %190 = load ptr, ptr %7, align 8
  %191 = icmp ne ptr %190, null
  br i1 %191, label %192, label %203

192:                                              ; preds = %189
  %193 = load ptr, ptr %7, align 8
  %194 = call i64 @strlen(ptr noundef %193) #19
  %195 = icmp ugt i64 %194, 0
  br i1 %195, label %196, label %203

196:                                              ; preds = %192
  %197 = load ptr, ptr @pbw_pool, align 8
  %198 = load ptr, ptr %7, align 8
  %199 = call ptr @pbw_DescriptorPool_FindMessageTypeByName(ptr noundef %197, ptr noundef %198)
  %200 = icmp eq ptr %199, null
  br i1 %200, label %201, label %203

201:                                              ; preds = %196
  %202 = load ptr, ptr %7, align 8
  call void (ptr, ...) @buffer_error(ptr noundef @.str.251, ptr noundef %202)
  br label %203

203:                                              ; preds = %201, %196, %192, %189, %180
  br label %204

204:                                              ; preds = %203
  %205 = load i32, ptr %3, align 4
  %206 = add i32 %205, 1
  store i32 %206, ptr %3, align 4
  br label %176, !llvm.loop !17

207:                                              ; preds = %176
  call void @flush_and_report_error()
  store i32 0, ptr %10, align 4
  br label %208

208:                                              ; preds = %207, %69
  call void @llvm.lifetime.end.p0(i64 8, ptr %9) #18
  call void @llvm.lifetime.end.p0(i64 1, ptr %8) #18
  call void @llvm.lifetime.end.p0(i64 8, ptr %7) #18
  call void @llvm.lifetime.end.p0(i64 8, ptr %6) #18
  call void @llvm.lifetime.end.p0(i64 8, ptr %5) #18
  call void @llvm.lifetime.end.p0(i64 8, ptr %4) #18
  call void @llvm.lifetime.end.p0(i64 4, ptr %3) #18
  %209 = load i32, ptr %10, align 4
  switch i32 %209, label %211 [
    i32 0, label %210
    i32 1, label %210
  ]

210:                                              ; preds = %208, %208
  ret void

211:                                              ; preds = %208
  unreachable
}