; Function Attrs: null_pointer_is_valid sspstrong uwtable
define internal fastcc void @protobuf_reinit(i32 noundef range(i32 1, 4) %0) unnamed_addr #0 {
  %.not = icmp samesign ult i32 %0, 2
  br i1 %.not, label %.loopexit67, label %.preheader

.preheader:                                       ; preds = %1
  %.05469 = load ptr, ptr @old_udp_port_ranges, align 8
  %.not6170 = icmp eq ptr %.05469, null
  br i1 %.not6170, label %._crit_edge.thread, label %.lr.ph

.lr.ph:                                           ; preds = %.preheader, %.lr.ph
  %.05471 = phi ptr [ %.054, %.lr.ph ], [ %.05469, %.preheader ]
  %2 = load ptr, ptr %.05471, align 8
  %3 = load ptr, ptr @protobuf_handle, align 8
  tail call void @dissector_delete_uint_range(ptr noundef nonnull @.str.249, ptr noundef %2, ptr noundef %3)
  tail call void @wmem_free(ptr noundef null, ptr noundef %2)
  %4 = getelementptr inbounds nuw i8, ptr %.05471, i64 8
  %.054 = load ptr, ptr %4, align 8
  %.not61 = icmp eq ptr %.054, null
  br i1 %.not61, label %._crit_edge, label %.lr.ph, !llvm.loop !15

._crit_edge:                                      ; preds = %.lr.ph
  %.pre = load ptr, ptr @old_udp_port_ranges, align 8
  %.not62 = icmp eq ptr %.pre, null
  br i1 %.not62, label %._crit_edge.thread, label %5

5:                                                ; preds = %._crit_edge
  tail call void @g_slist_free(ptr noundef nonnull %.pre)
  store ptr null, ptr @old_udp_port_ranges, align 8
  br label %._crit_edge.thread

._crit_edge.thread:                               ; preds = %.preheader, %5, %._crit_edge
  %6 = load i32, ptr @num_protobuf_udp_message_types, align 4
  %.not85 = icmp eq i32 %6, 0
  br i1 %.not85, label %.loopexit67, label %.lr.ph74.preheader

.lr.ph74.preheader:                               ; preds = %._crit_edge.thread
  %.pre99 = load ptr, ptr @protobuf_udp_message_types, align 8
  br label %.lr.ph74

.lr.ph74:                                         ; preds = %.lr.ph74.preheader, %16
  %7 = phi i32 [ %6, %.lr.ph74.preheader ], [ %17, %16 ]
  %8 = phi ptr [ %.pre99, %.lr.ph74.preheader ], [ %18, %16 ]
  %indvars.iv = phi i64 [ 0, %.lr.ph74.preheader ], [ %indvars.iv.next, %16 ]
  %9 = getelementptr %struct.protobuf_udp_message_type_t, ptr %8, i64 %indvars.iv
  %10 = load ptr, ptr %9, align 8
  %.not66 = icmp eq ptr %10, null
  br i1 %.not66, label %16, label %11

11:                                               ; preds = %.lr.ph74
  %12 = tail call ptr @range_copy(ptr noundef null, ptr noundef nonnull %10)
  %13 = load ptr, ptr @old_udp_port_ranges, align 8
  %14 = tail call ptr @g_slist_append(ptr noundef %13, ptr noundef %12)
  store ptr %14, ptr @old_udp_port_ranges, align 8
  %15 = load ptr, ptr @protobuf_handle, align 8
  tail call void @dissector_add_uint_range(ptr noundef nonnull @.str.249, ptr noundef %12, ptr noundef %15)
  %.pre98 = load ptr, ptr @protobuf_udp_message_types, align 8
  %.pre100 = load i32, ptr @num_protobuf_udp_message_types, align 4
  br label %16

16:                                               ; preds = %.lr.ph74, %11
  %17 = phi i32 [ %7, %.lr.ph74 ], [ %.pre100, %11 ]
  %18 = phi ptr [ %8, %.lr.ph74 ], [ %.pre98, %11 ]
  %indvars.iv.next = add nuw nsw i64 %indvars.iv, 1
  %19 = zext i32 %17 to i64
  %20 = icmp samesign ult i64 %indvars.iv.next, %19
  br i1 %20, label %.lr.ph74, label %.loopexit67, !llvm.loop !16

.loopexit67:                                      ; preds = %16, %._crit_edge.thread, %1
  %.b63 = load i1, ptr @protobuf_dissector_called, align 1
  br i1 %.b63, label %21, label %flush_and_report_error.exit

21:                                               ; preds = %.loopexit67
  %22 = and i32 %0, 1
  %.not64 = icmp eq i32 %22, 0
  br i1 %.not64, label %.thread, label %23

23:                                               ; preds = %21
  %24 = load i32, ptr @num_protobuf_search_paths, align 4
  %25 = zext i32 %24 to i64
  %26 = add nuw nsw i64 %25, 2
  %27 = add nuw nsw i64 %25, 3
  %28 = tail call noalias ptr @g_malloc0_n(i64 noundef %27, i64 noundef 8) #18
  %29 = tail call ptr @get_datafile_path(ptr noundef nonnull @.str.101)
  store ptr %29, ptr %28, align 8
  %30 = tail call ptr @get_persconffile_path(ptr noundef nonnull @.str.101, i1 noundef zeroext true)
  %31 = getelementptr i8, ptr %28, i64 8
  store ptr %30, ptr %31, align 8
  %32 = load i32, ptr @num_protobuf_search_paths, align 4
  %.not86 = icmp eq i32 %32, 0
  br i1 %.not86, label %._crit_edge78, label %.lr.ph77

.lr.ph77:                                         ; preds = %23
  %33 = load ptr, ptr @protobuf_search_paths, align 8
  %wide.trip.count = zext i32 %32 to i64
  br label %34

34:                                               ; preds = %.lr.ph77, %34
  %indvars.iv92 = phi i64 [ 0, %.lr.ph77 ], [ %indvars.iv.next93, %34 ]
  %35 = getelementptr %struct.protobuf_search_path_t, ptr %33, i64 %indvars.iv92
  %36 = load ptr, ptr %35, align 8
  %37 = add nuw i64 %indvars.iv92, 2
  %38 = and i64 %37, 4294967295
  %39 = getelementptr ptr, ptr %28, i64 %38
  store ptr %36, ptr %39, align 8
  %indvars.iv.next93 = add nuw nsw i64 %indvars.iv92, 1
  %exitcond.not = icmp eq i64 %indvars.iv.next93, %wide.trip.count
  br i1 %exitcond.not, label %._crit_edge78, label %34, !llvm.loop !17

._crit_edge78:                                    ; preds = %34, %23
  tail call void @pbw_reinit_DescriptorPool(ptr noundef nonnull @pbw_pool, ptr noundef %28, ptr noundef nonnull @buffer_error)
  br label %40

40:                                               ; preds = %._crit_edge78, %56
  %41 = phi i64 [ 0, %._crit_edge78 ], [ %58, %56 ]
  %.279 = phi i32 [ 0, %._crit_edge78 ], [ %57, %56 ]
  %42 = icmp ult i32 %.279, 2
  br i1 %42, label %50, label %43

43:                                               ; preds = %40
  %44 = load ptr, ptr @protobuf_search_paths, align 8
  %45 = add i32 %.279, -2
  %46 = zext i32 %45 to i64
  %47 = getelementptr %struct.protobuf_search_path_t, ptr %44, i64 %46, i32 1
  %48 = load i8, ptr %47, align 8, !range !6, !noundef !7
  %49 = trunc nuw i8 %48 to i1
  br i1 %49, label %50, label %56

50:                                               ; preds = %43, %40
  %51 = load ptr, ptr @pbw_pool, align 8
  %52 = getelementptr ptr, ptr %28, i64 %41
  %53 = load ptr, ptr %52, align 8
  %54 = tail call fastcc zeroext i1 @load_all_files_in_dir(ptr noundef %51, ptr noundef %53, i32 noundef 0)
  br i1 %54, label %56, label %55

55:                                               ; preds = %50
  tail call void (ptr, ...) @buffer_error(ptr noundef nonnull @.str.250)
  br label %.loopexit

56:                                               ; preds = %43, %50
  %57 = add i32 %.279, 1
  %58 = zext i32 %57 to i64
  %.not87 = icmp samesign ugt i64 %26, %58
  br i1 %.not87, label %40, label %.loopexit, !llvm.loop !18

.loopexit:                                        ; preds = %56, %55
  %.not106 = phi i1 [ true, %55 ], [ false, %56 ]
  %59 = load ptr, ptr %28, align 8
  tail call void @g_free(ptr noundef %59)
  %60 = load ptr, ptr %31, align 8
  tail call void @g_free(ptr noundef %60)
  tail call void @g_free(ptr noundef %28)
  tail call fastcc void @update_header_fields(i1 noundef zeroext true)
  %61 = load i32, ptr @num_protobuf_udp_message_types, align 4
  %.not88 = icmp eq i32 %61, 0
  %brmerge = or i1 %.not88, %.not106
  br i1 %brmerge, label %._crit_edge84, label %.lr.ph83.split.preheader

.thread:                                          ; preds = %21
  %62 = load i32, ptr @num_protobuf_udp_message_types, align 4
  %.not88103 = icmp eq i32 %62, 0
  br i1 %.not88103, label %._crit_edge84, label %.lr.ph83.split.preheader

.lr.ph83.split.preheader:                         ; preds = %.loopexit, %.thread
  br label %.lr.ph83.split

.lr.ph83.split:                                   ; preds = %.lr.ph83.split.preheader, %72
  %indvars.iv95 = phi i64 [ %indvars.iv.next96, %72 ], [ 0, %.lr.ph83.split.preheader ]
  %63 = load ptr, ptr @protobuf_udp_message_types, align 8
  %64 = getelementptr %struct.protobuf_udp_message_type_t, ptr %63, i64 %indvars.iv95, i32 1
  %65 = load ptr, ptr %64, align 8
  %.not89 = icmp eq ptr %65, null
  br i1 %.not89, label %72, label %66

66:                                               ; preds = %.lr.ph83.split
  %char0 = load i8, ptr %65, align 1
  %.not65 = icmp eq i8 %char0, 0
  br i1 %.not65, label %72, label %67

67:                                               ; preds = %66
  %68 = load ptr, ptr @pbw_pool, align 8
  %69 = tail call ptr @pbw_DescriptorPool_FindMessageTypeByName(ptr noundef %68, ptr noundef nonnull %65)
  %70 = icmp eq ptr %69, null
  br i1 %70, label %71, label %72

71:                                               ; preds = %67
  tail call void (ptr, ...) @buffer_error(ptr noundef nonnull @.str.251, ptr noundef nonnull %65)
  br label %72

72:                                               ; preds = %.lr.ph83.split, %66, %67, %71
  %indvars.iv.next96 = add nuw nsw i64 %indvars.iv95, 1
  %73 = load i32, ptr @num_protobuf_udp_message_types, align 4
  %74 = zext i32 %73 to i64
  %75 = icmp samesign ult i64 %indvars.iv.next96, %74
  br i1 %75, label %.lr.ph83.split, label %._crit_edge84, !llvm.loop !19

._crit_edge84:                                    ; preds = %72, %.loopexit, %.thread
  %76 = load ptr, ptr @err_msg_buf, align 8
  %.not.i = icmp eq ptr %76, null
  br i1 %.not.i, label %flush_and_report_error.exit, label %77

77:                                               ; preds = %._crit_edge84
  %78 = tail call ptr @wmem_strbuf_finalize(ptr noundef nonnull %76)
  store ptr null, ptr @err_msg_buf, align 8
  tail call void (ptr, ...) @report_failure(ptr noundef nonnull @.str.253, ptr noundef %78)
  %79 = tail call ptr @wmem_epan_scope()
  tail call void @wmem_free(ptr noundef %79, ptr noundef %78)
  br label %flush_and_report_error.exit

flush_and_report_error.exit:                      ; preds = %77, %._crit_edge84, %.loopexit67
  ret void
}